target datalayout = "e-m:e-p270:32:32-p271:32:32-p272:64:64-i64:64-i128:128-f80:128-n8:16:32:64-S128"
target triple = "x86_64-unknown-linux-gnu"

%"class.Assimp::Ogre::OgreBinarySerializer" = type <{ i32, [4 x i8], ptr, i32, [4 x i8] }>
%class.aiQuaterniont = type { float, float, float, float }
%"class.Assimp::StreamReader" = type <{ %"class.std::shared_ptr", ptr, ptr, ptr, ptr, i8, [7 x i8] }>
%"class.std::shared_ptr" = type { %"class.std::__shared_ptr" }
%"class.std::__shared_ptr" = type { ptr, %"class.std::__shared_count" }
%"class.std::__shared_count" = type { ptr }

@_ZTI17DeadlyImportError = linkonce_odr constant { ptr, ptr, ptr } { ptr getelementptr inbounds (ptr, ptr @_ZTVN10__cxxabiv120__si_class_type_infoE, i64 2), ptr @_ZTS17DeadlyImportError, ptr @_ZTI15DeadlyErrorBase }, comdat, align 8
@.str.68 = private unnamed_addr constant [38 x i8] c"End of file or read limit was reached\00", align 1

; Function Attrs: mustprogress uwtable
define linkonce_odr hidden void @_ZN6Assimp12StreamReaderILb0ELb0EE6SetPtrEPa(ptr noundef nonnull align 8 dereferenceable(49) %this, ptr noundef %p) #2 comdat align 2 personality ptr @__gxx_personality_v0 {
entry:
  %this.addr = alloca ptr, align 8
  %p.addr = alloca ptr, align 8
  %exn.slot = alloca ptr, align 8
  %ehselector.slot = alloca i32, align 4
  store ptr %this, ptr %this.addr, align 8
  store ptr %p, ptr %p.addr, align 8
  %this1 = load ptr, ptr %this.addr, align 8
  %0 = load ptr, ptr %p.addr, align 8
  %mCurrent = getelementptr inbounds %"class.Assimp::StreamReader", ptr %this1, i32 0, i32 2
  store ptr %0, ptr %mCurrent, align 8
  %mCurrent2 = getelementptr inbounds %"class.Assimp::StreamReader", ptr %this1, i32 0, i32 2
  %1 = load ptr, ptr %mCurrent2, align 8
  %mLimit = getelementptr inbounds %"class.Assimp::StreamReader", ptr %this1, i32 0, i32 4
  %2 = load ptr, ptr %mLimit, align 8
  %cmp = icmp ugt ptr %1, %2
  br i1 %cmp, label %if.then, label %lor.lhs.false

lor.lhs.false:                                    ; preds = %entry
  %mCurrent3 = getelementptr inbounds %"class.Assimp::StreamReader", ptr %this1, i32 0, i32 2
  %3 = load ptr, ptr %mCurrent3, align 8
  %mBuffer = getelementptr inbounds %"class.Assimp::StreamReader", ptr %this1, i32 0, i32 1
  %4 = load ptr, ptr %mBuffer, align 8
  %cmp4 = icmp ult ptr %3, %4
  br i1 %cmp4, label %if.then, label %if.end

if.then:                                          ; preds = %lor.lhs.false, %entry
  %exception = call ptr @__cxa_allocate_exception(i64 16) #5
  invoke void @_ZN17DeadlyImportErrorC2EPKc(ptr noundef nonnull align 8 dereferenceable(16) %exception, ptr noundef @.str.68)
          to label %invoke.cont unwind label %lpad

invoke.cont:                                      ; preds = %if.then
  call void @__cxa_throw(ptr %exception, ptr @_ZTI17DeadlyImportError, ptr @_ZN17DeadlyImportErrorD2Ev) #16
  unreachable

lpad:                                             ; preds = %if.then
  %5 = landingpad { ptr, i32 }
          cleanup
  %6 = extractvalue { ptr, i32 } %5, 0
  store ptr %6, ptr %exn.slot, align 8
  %7 = extractvalue { ptr, i32 } %5, 1
  store i32 %7, ptr %ehselector.slot, align 4
  call void @__cxa_free_exception(ptr %exception) #5
  br label %eh.resume

if.end:                                           ; preds = %lor.lhs.false
  ret void

eh.resume:                                        ; preds = %lpad
  %exn = load ptr, ptr %exn.slot, align 8
  %sel = load i32, ptr %ehselector.slot, align 4
  %lpad.val = insertvalue { ptr, i32 } poison, ptr %exn, 0
  %lpad.val5 = insertvalue { ptr, i32 } %lpad.val, i32 %sel, 1
  resume { ptr, i32 } %lpad.val5
}

; Function Attrs: mustprogress nounwind uwtable
define linkonce_odr hidden noundef ptr @_ZNK6Assimp12StreamReaderILb0ELb0EE6GetPtrEv(ptr noundef nonnull align 8 dereferenceable(49) %this) #0 comdat align 2 {
entry:
  %this.addr = alloca ptr, align 8
  store ptr %this, ptr %this.addr, align 8
  %this1 = load ptr, ptr %this.addr, align 8
  %mCurrent = getelementptr inbounds %"class.Assimp::StreamReader", ptr %this1, i32 0, i32 2
  %0 = load ptr, ptr %mCurrent, align 8
  ret ptr %0
}

; Function Attrs: mustprogress uwtable
define linkonce_odr hidden void @_ZN6Assimp12StreamReaderILb0ELb0EE14CopyAndAdvanceEPvm(ptr noundef nonnull align 8 dereferenceable(49) %this, ptr noundef %out, i64 noundef %bytes) #2 comdat align 2 {
entry:
  %this.addr = alloca ptr, align 8
  %out.addr = alloca ptr, align 8
  %bytes.addr = alloca i64, align 8
  %ur = alloca ptr, align 8
  store ptr %this, ptr %this.addr, align 8
  store ptr %out, ptr %out.addr, align 8
  store i64 %bytes, ptr %bytes.addr, align 8
  %this1 = load ptr, ptr %this.addr, align 8
  %call = call noundef ptr @_ZNK6Assimp12StreamReaderILb0ELb0EE6GetPtrEv(ptr noundef nonnull align 8 dereferenceable(49) %this1)
  store ptr %call, ptr %ur, align 8
  %0 = load ptr, ptr %ur, align 8
  %1 = load i64, ptr %bytes.addr, align 8
  %add.ptr = getelementptr inbounds i8, ptr %0, i64 %1
  call void @_ZN6Assimp12StreamReaderILb0ELb0EE6SetPtrEPa(ptr noundef nonnull align 8 dereferenceable(49) %this1, ptr noundef %add.ptr)
  %2 = load ptr, ptr %out.addr, align 8
  %3 = load ptr, ptr %ur, align 8
  %4 = load i64, ptr %bytes.addr, align 8
  call void @llvm.memcpy.p0.p0.i64(ptr align 1 %2, ptr align 1 %3, i64 %4, i1 false)
  ret void
}

; Function Attrs: mustprogress uwtable
define hidden void @_ZN6Assimp4Ogre20OgreBinarySerializer14ReadQuaternionER13aiQuaterniontIfE(ptr noundef nonnull align 8 dereferenceable(20) %this, ptr noundef nonnull align 4 dereferenceable(16) %quat) #2 align 2 {
entry:
  %this.addr = alloca ptr, align 8
  %quat.addr = alloca ptr, align 8
  %temp = alloca [4 x float], align 16
  store ptr %this, ptr %this.addr, align 8
  store ptr %quat, ptr %quat.addr, align 8
  %this1 = load ptr, ptr %this.addr, align 8
  %m_reader = getelementptr inbounds %"class.Assimp::Ogre::OgreBinarySerializer", ptr %this1, i32 0, i32 2
  %0 = load ptr, ptr %m_reader, align 8
  %arraydecay = getelementptr inbounds [4 x float], ptr %temp, i64 0, i64 0
  call void @_ZN6Assimp12StreamReaderILb0ELb0EE14CopyAndAdvanceEPvm(ptr noundef nonnull align 8 dereferenceable(49) %0, ptr noundef %arraydecay, i64 noundef 16)
  %arrayidx = getelementptr inbounds [4 x float], ptr %temp, i64 0, i64 0
  %1 = load float, ptr %arrayidx, align 16
  %2 = load ptr, ptr %quat.addr, align 8
  %x = getelementptr inbounds %class.aiQuaterniont, ptr %2, i32 0, i32 1
  store float %1, ptr %x, align 4
  %arrayidx2 = getelementptr inbounds [4 x float], ptr %temp, i64 0, i64 1
  %3 = load float, ptr %arrayidx2, align 4
  %4 = load ptr, ptr %quat.addr, align 8
  %y = getelementptr inbounds %class.aiQuaterniont, ptr %4, i32 0, i32 2
  store float %3, ptr %y, align 4
  %arrayidx3 = getelementptr inbounds [4 x float], ptr %temp, i64 0, i64 2
  %5 = load float, ptr %arrayidx3, align 8
  %6 = load ptr, ptr %quat.addr, align 8
  %z = getelementptr inbounds %class.aiQuaterniont, ptr %6, i32 0, i32 3
  store float %5, ptr %z, align 4
  %arrayidx4 = getelementptr inbounds [4 x float], ptr %temp, i64 0, i64 3
  %7 = load float, ptr %arrayidx4, align 4
  %8 = load ptr, ptr %quat.addr, align 8
  %w = getelementptr inbounds %class.aiQuaterniont, ptr %8, i32 0, i32 0
  store float %7, ptr %w, align 4
  ret void
}