; Function Attrs: mustprogress uwtable
define hidden void @_ZN6Assimp4Ogre20OgreBinarySerializer14ReadQuaternionER13aiQuaterniontIfE(ptr nocapture noundef nonnull readonly align 8 dereferenceable(20) %this, ptr nocapture noundef nonnull writeonly align 4 dereferenceable(16) %quat) local_unnamed_addr #2 align 2 personality ptr @__gxx_personality_v0 {
entry:
  %m_reader = getelementptr inbounds i8, ptr %this, i64 8
  %0 = load ptr, ptr %m_reader, align 8
  %mCurrent.i.i = getelementptr inbounds i8, ptr %0, i64 24
  %1 = load ptr, ptr %mCurrent.i.i, align 8
  %add.ptr.i = getelementptr inbounds i8, ptr %1, i64 16
  store ptr %add.ptr.i, ptr %mCurrent.i.i, align 8
  %mLimit.i.i = getelementptr inbounds i8, ptr %0, i64 40
  %2 = load ptr, ptr %mLimit.i.i, align 8
  %cmp.i.i = icmp ult ptr %2, %add.ptr.i
  %mBuffer.i.i = getelementptr inbounds i8, ptr %0, i64 16
  %3 = load ptr, ptr %mBuffer.i.i, align 8
  %cmp4.i.i = icmp ugt ptr %3, %add.ptr.i
  %or.cond.i.i = select i1 %cmp.i.i, i1 true, i1 %cmp4.i.i
  br i1 %or.cond.i.i, label %if.then.i.i, label %_ZN6Assimp12StreamReaderILb0ELb0EE14CopyAndAdvanceEPvm.exit

if.then.i.i:                                      ; preds = %entry
  %exception.i.i = tail call ptr @__cxa_allocate_exception(i64 16) #19
  invoke void @_ZN17DeadlyImportErrorC2EPKc(ptr noundef nonnull align 8 dereferenceable(16) %exception.i.i, ptr noundef nonnull @.str.68)
          to label %invoke.cont.i.i unwind label %lpad.i.i

invoke.cont.i.i:                                  ; preds = %if.then.i.i
  tail call void @__cxa_throw(ptr nonnull %exception.i.i, ptr nonnull @_ZTI17DeadlyImportError, ptr nonnull @_ZN17DeadlyImportErrorD2Ev) #20
  unreachable

lpad.i.i:                                         ; preds = %if.then.i.i
  %4 = landingpad { ptr, i32 }
          cleanup
  tail call void @__cxa_free_exception(ptr %exception.i.i) #19
  resume { ptr, i32 } %4

_ZN6Assimp12StreamReaderILb0ELb0EE14CopyAndAdvanceEPvm.exit: ; preds = %entry
  %5 = load <4 x float>, ptr %1, align 1
  %6 = shufflevector <4 x float> %5, <4 x float> poison, <4 x i32> <i32 3, i32 0, i32 1, i32 2>
  store <4 x float> %6, ptr %quat, align 4
  ret void
}